; Function Attrs: mustprogress uwtable
define void @_ZN7openvdb5v11_011compression4Page10readHeaderERSi(ptr nocapture noundef nonnull readonly align 8 dereferenceable(17) %this, ptr noundef nonnull align 8 dereferenceable(16) %is) local_unnamed_addr #4 align 2 {
entry:
  %compressedSize = alloca i32, align 4
  %uncompressedSize = alloca i32, align 4
  %call = call noundef nonnull align 8 dereferenceable(16) ptr @_ZNSi4readEPcl(ptr noundef nonnull align 8 dereferenceable(16) %is, ptr noundef nonnull %compressedSize, i64 noundef 4)
  %0 = load i32, ptr %compressedSize, align 4
  %cmp = icmp sgt i32 %0, 0
  br i1 %cmp, label %if.then, label %if.else

if.then:                                          ; preds = %entry
  %call2 = call noundef nonnull align 8 dereferenceable(16) ptr @_ZNSi4readEPcl(ptr noundef nonnull align 8 dereferenceable(16) %is, ptr noundef nonnull %uncompressedSize, i64 noundef 4)
  %.pre = load i32, ptr %compressedSize, align 4
  %.pre2 = load i32, ptr %uncompressedSize, align 4
  br label %if.end

if.else:                                          ; preds = %entry
  %sub = sub nsw i32 0, %0
  br label %if.end

if.end:                                           ; preds = %if.else, %if.then
  %1 = phi i32 [ %sub, %if.else ], [ %.pre2, %if.then ]
  %2 = phi i32 [ %0, %if.else ], [ %.pre, %if.then ]
  %conv = sext i32 %2 to i64
  %3 = load ptr, ptr %this, align 8
  %compressedBytes = getelementptr inbounds i8, ptr %3, i64 40
  store i64 %conv, ptr %compressedBytes, align 8
  %conv4 = sext i32 %1 to i64
  %4 = load ptr, ptr %this, align 8
  %uncompressedBytes = getelementptr inbounds i8, ptr %4, i64 48
  store i64 %conv4, ptr %uncompressedBytes, align 8
  ret void
}